; Function Attrs: mustprogress uwtable
define noundef i64 @_ZNK8facebook5velox6memory14MemoryPoolImpl9freeBytesEv(ptr noundef nonnull align 8 dereferenceable(480) %this) unnamed_addr #0 align 2 personality ptr @__gxx_personality_v0 {
entry:
  %parent_ = getelementptr inbounds i8, ptr %this, i64 64
  %0 = load ptr, ptr %parent_, align 8
  %cmp.i.i.not = icmp eq ptr %0, null
  br i1 %cmp.i.i.not, label %if.end, label %if.then

if.then:                                          ; preds = %entry
  %vtable = load ptr, ptr %0, align 8
  %vfn = getelementptr inbounds i8, ptr %vtable, i64 272
  %1 = load ptr, ptr %vfn, align 8
  %call4 = tail call noundef i64 %1(ptr noundef nonnull align 8 dereferenceable(168) %0)
  br label %return

if.end:                                           ; preds = %entry
  %mutex_ = getelementptr inbounds i8, ptr %this, i64 248
  %call1.i.i.i = tail call noundef i32 @pthread_mutex_lock(ptr noundef nonnull %mutex_) #26
  %tobool.not.i.i = icmp eq i32 %call1.i.i.i, 0
  br i1 %tobool.not.i.i, label %_ZNSt10lock_guardISt5mutexEC2ERS0_.exit, label %if.then.i.i

if.then.i.i:                                      ; preds = %if.end
  tail call void @_ZSt20__throw_system_errori(i32 noundef %call1.i.i.i) #29
  unreachable

_ZNSt10lock_guardISt5mutexEC2ERS0_.exit:          ; preds = %if.end
  %capacity_ = getelementptr inbounds i8, ptr %this, i64 296
  %2 = load i64, ptr %capacity_, align 8
  %cmp = icmp eq i64 %2, 9223372036854775807
  br i1 %cmp, label %cleanup, label %if.end6

if.end6:                                          ; preds = %_ZNSt10lock_guardISt5mutexEC2ERS0_.exit
  %reservationBytes_ = getelementptr inbounds i8, ptr %this, i64 304
  %3 = load i64, ptr %reservationBytes_, align 8
  %cmp8.not = icmp slt i64 %2, %3
  br i1 %cmp8.not, label %if.then9, label %if.end10

if.then9:                                         ; preds = %if.end6
  tail call void @llvm.trap()
  unreachable

if.end10:                                         ; preds = %if.end6
  %sub = sub nsw i64 %2, %3
  br label %cleanup

cleanup:                                          ; preds = %_ZNSt10lock_guardISt5mutexEC2ERS0_.exit, %if.end10
  %retval.0 = phi i64 [ %sub, %if.end10 ], [ 0, %_ZNSt10lock_guardISt5mutexEC2ERS0_.exit ]
  %call1.i.i.i1 = tail call noundef i32 @pthread_mutex_unlock(ptr noundef nonnull %mutex_) #26
  br label %return

return:                                           ; preds = %cleanup, %if.then
  %retval.1 = phi i64 [ %call4, %if.then ], [ %retval.0, %cleanup ]
  ret i64 %retval.1
}